target datalayout = "e-m:e-p270:32:32-p271:32:32-p272:64:64-i64:64-i128:128-f80:128-n8:16:32:64-S128"
target triple = "x86_64-pc-linux-gnu"

%struct.cmac_data_st = type { ptr, ptr, %struct.PROV_CIPHER }
%struct.PROV_CIPHER = type { ptr, ptr, ptr }

; Function Attrs: nounwind uwtable
define internal i32 @cmac_setkey(ptr noundef %0, ptr noundef %1, i64 noundef %2) #0 {
  %4 = alloca ptr, align 8
  %5 = alloca ptr, align 8
  %6 = alloca i64, align 8
  %7 = alloca i32, align 4
  %8 = alloca ptr, align 8
  store ptr %0, ptr %4, align 8, !tbaa !7
  store ptr %1, ptr %5, align 8, !tbaa !16
  store i64 %2, ptr %6, align 8, !tbaa !18
  call void @llvm.lifetime.start.p0(i64 4, ptr %7) #4
  call void @llvm.lifetime.start.p0(i64 8, ptr %8) #4
  store ptr null, ptr %8, align 8, !tbaa !20
  %9 = load ptr, ptr %4, align 8, !tbaa !7
  %10 = getelementptr inbounds nuw %struct.cmac_data_st, ptr %9, i32 0, i32 1
  %11 = load ptr, ptr %10, align 8, !tbaa !9
  %12 = load ptr, ptr %5, align 8, !tbaa !16
  %13 = load i64, ptr %6, align 8, !tbaa !18
  %14 = load ptr, ptr %4, align 8, !tbaa !7
  %15 = getelementptr inbounds nuw %struct.cmac_data_st, ptr %14, i32 0, i32 2
  %16 = call ptr @ossl_prov_cipher_cipher(ptr noundef %15)
  %17 = load ptr, ptr %4, align 8, !tbaa !7
  %18 = getelementptr inbounds nuw %struct.cmac_data_st, ptr %17, i32 0, i32 2
  %19 = call ptr @ossl_prov_cipher_engine(ptr noundef %18)
  %20 = load ptr, ptr %8, align 8, !tbaa !20
  %21 = call i32 @ossl_cmac_init(ptr noundef %11, ptr noundef %12, i64 noundef %13, ptr noundef %16, ptr noundef %19, ptr noundef %20)
  store i32 %21, ptr %7, align 4, !tbaa !31
  %22 = load ptr, ptr %4, align 8, !tbaa !7
  %23 = getelementptr inbounds nuw %struct.cmac_data_st, ptr %22, i32 0, i32 2
  call void @ossl_prov_cipher_reset(ptr noundef %23)
  %24 = load i32, ptr %7, align 4, !tbaa !31
  call void @llvm.lifetime.end.p0(i64 8, ptr %8) #4
  call void @llvm.lifetime.end.p0(i64 4, ptr %7) #4
  ret i32 %24
}

; Function Attrs: nounwind uwtable
define internal i32 @cmac_init(ptr noundef %0, ptr noundef %1, i64 noundef %2, ptr noundef %3) #0 {
  %5 = alloca i32, align 4
  %6 = alloca ptr, align 8
  %7 = alloca ptr, align 8
  %8 = alloca i64, align 8
  %9 = alloca ptr, align 8
  %10 = alloca ptr, align 8
  %11 = alloca i32, align 4
  store ptr %0, ptr %6, align 8, !tbaa !3
  store ptr %1, ptr %7, align 8, !tbaa !16
  store i64 %2, ptr %8, align 8, !tbaa !18
  store ptr %3, ptr %9, align 8, !tbaa !20
  call void @llvm.lifetime.start.p0(i64 8, ptr %10) #4
  %12 = load ptr, ptr %6, align 8, !tbaa !3
  store ptr %12, ptr %10, align 8, !tbaa !7
  %13 = call i32 @ossl_prov_is_running()
  %14 = icmp ne i32 %13, 0
  br i1 %14, label %15, label %20

15:                                               ; preds = %4
  %16 = load ptr, ptr %10, align 8, !tbaa !7
  %17 = load ptr, ptr %9, align 8, !tbaa !20
  %18 = call i32 @cmac_set_ctx_params(ptr noundef %16, ptr noundef %17)
  %19 = icmp ne i32 %18, 0
  br i1 %19, label %21, label %20

20:                                               ; preds = %15, %4
  store i32 0, ptr %5, align 4
  store i32 1, ptr %11, align 4
  br label %34

21:                                               ; preds = %15
  %22 = load ptr, ptr %7, align 8, !tbaa !16
  %23 = icmp ne ptr %22, null
  br i1 %23, label %24, label %29

24:                                               ; preds = %21
  %25 = load ptr, ptr %10, align 8, !tbaa !7
  %26 = load ptr, ptr %7, align 8, !tbaa !16
  %27 = load i64, ptr %8, align 8, !tbaa !18
  %28 = call i32 @cmac_setkey(ptr noundef %25, ptr noundef %26, i64 noundef %27)
  store i32 %28, ptr %5, align 4
  store i32 1, ptr %11, align 4
  br label %34

29:                                               ; preds = %21
  %30 = load ptr, ptr %10, align 8, !tbaa !7
  %31 = getelementptr inbounds nuw %struct.cmac_data_st, ptr %30, i32 0, i32 1
  %32 = load ptr, ptr %31, align 8, !tbaa !9
  %33 = call i32 @CMAC_Init(ptr noundef %32, ptr noundef null, i64 noundef 0, ptr noundef null, ptr noundef null)
  store i32 %33, ptr %5, align 4
  store i32 1, ptr %11, align 4
  br label %34

34:                                               ; preds = %29, %24, %20
  call void @llvm.lifetime.end.p0(i64 8, ptr %10) #4
  %35 = load i32, ptr %5, align 4
  ret i32 %35
}