; Function Attrs: nounwind uwtable
define internal i32 @cmac_init(ptr noundef %0, ptr noundef %1, i64 noundef %2, ptr noundef %3) #0 {
  %5 = tail call i32 @ossl_prov_is_running() #3
  %.not = icmp eq i32 %5, 0
  br i1 %.not, label %18, label %6

6:                                                ; preds = %4
  %7 = tail call i32 @cmac_set_ctx_params(ptr noundef %0, ptr noundef %3)
  %.not9 = icmp eq i32 %7, 0
  br i1 %.not9, label %18, label %8

8:                                                ; preds = %6
  %.not10 = icmp eq ptr %1, null
  %9 = getelementptr inbounds nuw i8, ptr %0, i64 8
  %10 = load ptr, ptr %9, align 8, !tbaa !3
  br i1 %.not10, label %16, label %11

11:                                               ; preds = %8
  %12 = getelementptr inbounds nuw i8, ptr %0, i64 16
  %13 = tail call ptr @ossl_prov_cipher_cipher(ptr noundef nonnull %12) #3
  %14 = tail call ptr @ossl_prov_cipher_engine(ptr noundef nonnull %12) #3
  %15 = tail call i32 @ossl_cmac_init(ptr noundef %10, ptr noundef nonnull %1, i64 noundef %2, ptr noundef %13, ptr noundef %14, ptr noundef null) #3
  tail call void @ossl_prov_cipher_reset(ptr noundef nonnull %12) #3
  br label %18

16:                                               ; preds = %8
  %17 = tail call i32 @CMAC_Init(ptr noundef %10, ptr noundef null, i64 noundef 0, ptr noundef null, ptr noundef null) #3
  br label %18

18:                                               ; preds = %4, %6, %16, %11
  %.0 = phi i32 [ %15, %11 ], [ %17, %16 ], [ 0, %6 ], [ 0, %4 ]
  ret i32 %.0
}